target datalayout = "e-m:e-p270:32:32-p271:32:32-p272:64:64-i64:64-i128:128-f80:128-n8:16:32:64-S128"
target triple = "x86_64-pc-linux-gnu"

%"struct.duckdb_libpgquery::PGListCell" = type { %union.anon, ptr }
%union.anon = type { ptr }
%"struct.duckdb_libpgquery::PGList" = type { i32, i32, ptr, ptr }
%"struct.duckdb_libpgquery::PGCollateClause" = type { i32, ptr, ptr, i32 }
%"struct.duckdb_libpgquery::PGNode" = type { i32 }

@.str.180 = private unnamed_addr constant [37 x i8] c"multiple COLLATE clauses not allowed\00", align 1
@.str.181 = private unnamed_addr constant [24 x i8] c"unexpected node type %d\00", align 1

; Function Attrs: inlinehint mustprogress nounwind uwtable
define internal noundef ptr @_ZN17duckdb_libpgqueryL9list_headEPKNS_6PGListE(ptr noundef %0) #5 {
  %2 = alloca ptr, align 8
  store ptr %0, ptr %2, align 8, !tbaa !286
  %3 = load ptr, ptr %2, align 8, !tbaa !286
  %4 = icmp ne ptr %3, null
  br i1 %4, label %5, label %9

5:                                                ; preds = %1
  %6 = load ptr, ptr %2, align 8, !tbaa !286
  %7 = getelementptr inbounds nuw %"struct.duckdb_libpgquery::PGList", ptr %6, i32 0, i32 2
  %8 = load ptr, ptr %7, align 8, !tbaa !533
  br label %10

9:                                                ; preds = %1
  br label %10

10:                                               ; preds = %9, %5
  %11 = phi ptr [ %8, %5 ], [ null, %9 ]
  ret ptr %11
}

; Function Attrs: mustprogress uwtable
define internal void @_ZN17duckdb_libpgqueryL16SplitColQualListEPNS_6PGListEPS1_PPNS_15PGCollateClauseEPv(ptr noundef %0, ptr noundef %1, ptr noundef %2, ptr noundef %3) #0 {
  %5 = alloca ptr, align 8
  %6 = alloca ptr, align 8
  %7 = alloca ptr, align 8
  %8 = alloca ptr, align 8
  %9 = alloca ptr, align 8
  %10 = alloca ptr, align 8
  %11 = alloca ptr, align 8
  %12 = alloca ptr, align 8
  %13 = alloca i32, align 4
  %14 = alloca ptr, align 8
  store ptr %0, ptr %5, align 8, !tbaa !286
  store ptr %1, ptr %6, align 8, !tbaa !748
  store ptr %2, ptr %7, align 8, !tbaa !750
  store ptr %3, ptr %8, align 8, !tbaa !3
  call void @llvm.lifetime.start.p0(i64 8, ptr %9) #13
  call void @llvm.lifetime.start.p0(i64 8, ptr %10) #13
  call void @llvm.lifetime.start.p0(i64 8, ptr %11) #13
  %15 = load ptr, ptr %7, align 8, !tbaa !750
  store ptr null, ptr %15, align 8, !tbaa !258
  store ptr null, ptr %10, align 8, !tbaa !123
  %16 = load ptr, ptr %5, align 8, !tbaa !286
  %17 = call noundef ptr @_ZN17duckdb_libpgqueryL9list_headEPKNS_6PGListE(ptr noundef %16)
  store ptr %17, ptr %9, align 8, !tbaa !123
  br label %18

18:                                               ; preds = %68, %4
  %19 = load ptr, ptr %9, align 8, !tbaa !123
  %20 = icmp ne ptr %19, null
  br i1 %20, label %21, label %70

21:                                               ; preds = %18
  call void @llvm.lifetime.start.p0(i64 8, ptr %12) #13
  %22 = load ptr, ptr %9, align 8, !tbaa !123
  %23 = getelementptr inbounds nuw %"struct.duckdb_libpgquery::PGListCell", ptr %22, i32 0, i32 0
  %24 = load ptr, ptr %23, align 8, !tbaa !22
  store ptr %24, ptr %12, align 8, !tbaa !408
  %25 = load ptr, ptr %9, align 8, !tbaa !123
  %26 = getelementptr inbounds nuw %"struct.duckdb_libpgquery::PGListCell", ptr %25, i32 0, i32 1
  %27 = load ptr, ptr %26, align 8, !tbaa !85
  store ptr %27, ptr %11, align 8, !tbaa !123
  %28 = load ptr, ptr %12, align 8, !tbaa !408
  %29 = getelementptr inbounds nuw %"struct.duckdb_libpgquery::PGNode", ptr %28, i32 0, i32 0
  %30 = load i32, ptr %29, align 4, !tbaa !460
  %31 = icmp eq i32 %30, 375
  br i1 %31, label %32, label %34

32:                                               ; preds = %21
  %33 = load ptr, ptr %9, align 8, !tbaa !123
  store ptr %33, ptr %10, align 8, !tbaa !123
  store i32 4, ptr %13, align 4
  br label %65

34:                                               ; preds = %21
  %35 = load ptr, ptr %12, align 8, !tbaa !408
  %36 = getelementptr inbounds nuw %"struct.duckdb_libpgquery::PGNode", ptr %35, i32 0, i32 0
  %37 = load i32, ptr %36, align 4, !tbaa !460
  %38 = icmp eq i32 %37, 364
  br i1 %38, label %39, label %56

39:                                               ; preds = %34
  call void @llvm.lifetime.start.p0(i64 8, ptr %14) #13
  %40 = load ptr, ptr %12, align 8, !tbaa !408
  store ptr %40, ptr %14, align 8, !tbaa !258
  %41 = load ptr, ptr %7, align 8, !tbaa !750
  %42 = load ptr, ptr %41, align 8, !tbaa !258
  %43 = icmp ne ptr %42, null
  br i1 %43, label %44, label %53

44:                                               ; preds = %39
  %45 = call noundef i32 @_ZN17duckdb_libpgquery7errcodeEi(i32 noundef 0)
  %46 = call noundef i32 (ptr, ...) @_ZN17duckdb_libpgquery6errmsgEPKcz(ptr noundef @.str.180)
  %47 = load ptr, ptr %14, align 8, !tbaa !258
  %48 = getelementptr inbounds nuw %"struct.duckdb_libpgquery::PGCollateClause", ptr %47, i32 0, i32 3
  %49 = load i32, ptr %48, align 8, !tbaa !262
  %50 = load ptr, ptr %8, align 8, !tbaa !3
  %51 = call noundef i32 @_ZN17duckdb_libpgquery19scanner_errpositionEiPv(i32 noundef %49, ptr noundef %50)
  %52 = call noundef i32 (i32, ...) @_ZN17duckdb_libpgquery7ereportEiz(i32 noundef 3, i32 noundef %51)
  br label %53

53:                                               ; preds = %44, %39
  %54 = load ptr, ptr %14, align 8, !tbaa !258
  %55 = load ptr, ptr %7, align 8, !tbaa !750
  store ptr %54, ptr %55, align 8, !tbaa !258
  call void @llvm.lifetime.end.p0(i64 8, ptr %14) #13
  br label %60

56:                                               ; preds = %34
  %57 = load ptr, ptr %12, align 8, !tbaa !408
  %58 = getelementptr inbounds nuw %"struct.duckdb_libpgquery::PGNode", ptr %57, i32 0, i32 0
  %59 = load i32, ptr %58, align 4, !tbaa !460
  call void (i32, ptr, ...) @_ZN17duckdb_libpgquery4elogEiPKcz(i32 noundef 3, ptr noundef @.str.181, i32 noundef %59)
  br label %60

60:                                               ; preds = %56, %53
  %61 = load ptr, ptr %5, align 8, !tbaa !286
  %62 = load ptr, ptr %9, align 8, !tbaa !123
  %63 = load ptr, ptr %10, align 8, !tbaa !123
  %64 = call noundef ptr @_ZN17duckdb_libpgquery16list_delete_cellEPNS_6PGListEPNS_10PGListCellES3_(ptr noundef %61, ptr noundef %62, ptr noundef %63)
  store ptr %64, ptr %5, align 8, !tbaa !286
  store i32 0, ptr %13, align 4
  br label %65

65:                                               ; preds = %60, %32
  call void @llvm.lifetime.end.p0(i64 8, ptr %12) #13
  %66 = load i32, ptr %13, align 4
  switch i32 %66, label %73 [
    i32 0, label %67
    i32 4, label %68
  ]

67:                                               ; preds = %65
  br label %68

68:                                               ; preds = %67, %65
  %69 = load ptr, ptr %11, align 8, !tbaa !123
  store ptr %69, ptr %9, align 8, !tbaa !123
  br label %18, !llvm.loop !752

70:                                               ; preds = %18
  %71 = load ptr, ptr %5, align 8, !tbaa !286
  %72 = load ptr, ptr %6, align 8, !tbaa !748
  store ptr %71, ptr %72, align 8, !tbaa !286
  call void @llvm.lifetime.end.p0(i64 8, ptr %11) #13
  call void @llvm.lifetime.end.p0(i64 8, ptr %10) #13
  call void @llvm.lifetime.end.p0(i64 8, ptr %9) #13
  ret void

73:                                               ; preds = %65
  unreachable
}