; Function Attrs: mustprogress uwtable
define internal fastcc void @_ZN17duckdb_libpgqueryL16SplitColQualListEPNS_6PGListEPS1_PPNS_15PGCollateClauseEPv(ptr noundef %0, ptr noundef writeonly captures(none) %1, ptr noundef captures(none) initializes((0, 8)) %2, ptr noundef %3) unnamed_addr #0 {
  store ptr null, ptr %2, align 8, !tbaa !589
  %.not.i = icmp eq ptr %0, null
  br i1 %.not.i, label %._crit_edge, label %_ZN17duckdb_libpgqueryL9list_headEPKNS_6PGListE.exit

_ZN17duckdb_libpgqueryL9list_headEPKNS_6PGListE.exit: ; preds = %4
  %5 = getelementptr inbounds nuw i8, ptr %0, i64 8
  %6 = load ptr, ptr %5, align 8, !tbaa !72
  %.not26 = icmp eq ptr %6, null
  br i1 %.not26, label %._crit_edge, label %.lr.ph

.lr.ph:                                           ; preds = %_ZN17duckdb_libpgqueryL9list_headEPKNS_6PGListE.exit, %24
  %.029 = phi ptr [ %.1, %24 ], [ %0, %_ZN17duckdb_libpgqueryL9list_headEPKNS_6PGListE.exit ]
  %.02128 = phi ptr [ %9, %24 ], [ %6, %_ZN17duckdb_libpgqueryL9list_headEPKNS_6PGListE.exit ]
  %.02227 = phi ptr [ %.123, %24 ], [ null, %_ZN17duckdb_libpgqueryL9list_headEPKNS_6PGListE.exit ]
  %7 = load ptr, ptr %.02128, align 8, !tbaa !9
  %8 = getelementptr inbounds nuw i8, ptr %.02128, i64 8
  %9 = load ptr, ptr %8, align 8, !tbaa !74
  %10 = load i32, ptr %7, align 4, !tbaa !386
  switch i32 %10, label %21 [
    i32 375, label %24
    i32 364, label %11
  ]

11:                                               ; preds = %.lr.ph
  %12 = load ptr, ptr %2, align 8, !tbaa !589
  %.not25 = icmp eq ptr %12, null
  br i1 %.not25, label %20, label %13

13:                                               ; preds = %11
  %14 = tail call noundef i32 @_ZN17duckdb_libpgquery7errcodeEi(i32 noundef 0)
  %15 = tail call noundef i32 (ptr, ...) @_ZN17duckdb_libpgquery6errmsgEPKcz(ptr noundef nonnull @.str.180)
  %16 = getelementptr inbounds nuw i8, ptr %7, i64 24
  %17 = load i32, ptr %16, align 8, !tbaa !218
  %18 = tail call noundef i32 @_ZN17duckdb_libpgquery19scanner_errpositionEiPv(i32 noundef %17, ptr noundef %3)
  %19 = tail call noundef i32 (i32, ...) @_ZN17duckdb_libpgquery7ereportEiz(i32 noundef 3, i32 noundef %18)
  br label %20

20:                                               ; preds = %13, %11
  store ptr %7, ptr %2, align 8, !tbaa !589
  br label %22

21:                                               ; preds = %.lr.ph
  tail call void (i32, ptr, ...) @_ZN17duckdb_libpgquery4elogEiPKcz(i32 noundef 3, ptr noundef nonnull @.str.181, i32 noundef %10)
  br label %22

22:                                               ; preds = %21, %20
  %23 = tail call noundef ptr @_ZN17duckdb_libpgquery16list_delete_cellEPNS_6PGListEPNS_10PGListCellES3_(ptr noundef %.029, ptr noundef nonnull %.02128, ptr noundef %.02227)
  br label %24

24:                                               ; preds = %.lr.ph, %22
  %.123 = phi ptr [ %.02227, %22 ], [ %.02128, %.lr.ph ]
  %.1 = phi ptr [ %23, %22 ], [ %.029, %.lr.ph ]
  %.not = icmp eq ptr %9, null
  br i1 %.not, label %._crit_edge, label %.lr.ph, !llvm.loop !590

._crit_edge:                                      ; preds = %24, %4, %_ZN17duckdb_libpgqueryL9list_headEPKNS_6PGListE.exit
  %.0.lcssa = phi ptr [ %0, %_ZN17duckdb_libpgqueryL9list_headEPKNS_6PGListE.exit ], [ null, %4 ], [ %.1, %24 ]
  store ptr %.0.lcssa, ptr %1, align 8, !tbaa !591
  ret void
}